	.file	"hw7.cc"
	.text
.Ltext0:
	.cfi_sections	.debug_frame
	.p2align 4
	.def	__tcf_0;	.scl	3;	.type	32;	.endef
	.seh_proc	__tcf_0
__tcf_0:
.LFB1867:
	.file 1 "C:/msys64/mingw64/include/c++/9.2.0/iostream"
	.loc 1 74 25 view -0
	.cfi_startproc
	.seh_endprologue
	.loc 1 74 25 is_stmt 0 view .LVU1
	leaq	_ZStL8__ioinit(%rip), %rcx
	jmp	_ZNSt8ios_base4InitD1Ev
.LVL0:
	.cfi_endproc
.LFE1867:
	.seh_endproc
	.def	__main;	.scl	2;	.type	32;	.endef
	.section .rdata,"dr"
.LC0:
	.ascii ",\0"
	.section	.text.startup,"x"
	.p2align 4
	.globl	main
	.def	main;	.scl	2;	.type	32;	.endef
	.seh_proc	main
main:
.LFB1544:
	.file 2 "hw7.cc"
	.loc 2 7 12 is_stmt 1 view -0
	.cfi_startproc
	pushq	%r12
	.seh_pushreg	%r12
	.cfi_def_cfa_offset 16
	.cfi_offset 12, -16
	subq	$96, %rsp
	.seh_stackalloc	96
	.cfi_def_cfa_offset 112
	.seh_endprologue
	.loc 2 7 12 is_stmt 0 view .LVU3
	call	__main
.LVL1:
	.loc 2 8 2 is_stmt 1 view .LVU4
.LBB76:
.LBI76:
	.file 3 "BigNum.hh"
	.loc 3 11 2 view .LVU5
.LBE76:
	.loc 2 11 8 is_stmt 0 view .LVU6
	leaq	64(%rsp), %r8
	leaq	48(%rsp), %rdx
.LVL2:
.LBB81:
.LBB77:
.LBB78:
	.loc 3 11 44 view .LVU7
	movabsq	$12884901888, %rax
	movq	%rax, 56(%rsp)
.LVL3:
	.loc 3 11 44 view .LVU8
.LBE78:
.LBE77:
.LBE81:
	.loc 2 9 2 is_stmt 1 view .LVU9
.LBB82:
.LBI82:
	.loc 3 11 2 view .LVU10
.LBE82:
	.loc 2 11 8 is_stmt 0 view .LVU11
	leaq	80(%rsp), %rcx
.LBB87:
.LBB83:
.LBB84:
	.loc 3 11 44 view .LVU12
	movabsq	$21474836480, %rax
	movq	%rax, 72(%rsp)
.LVL4:
	.loc 3 11 44 view .LVU13
.LBE84:
.LBE83:
.LBE87:
	.loc 2 10 2 is_stmt 1 view .LVU14
.LBB88:
.LBI88:
	.loc 3 10 2 view .LVU15
	.loc 3 10 2 is_stmt 0 view .LVU16
.LBE88:
	.loc 2 11 2 is_stmt 1 view .LVU17
.LBB89:
.LBB80:
.LBB79:
	.loc 3 11 44 is_stmt 0 view .LVU18
	movq	$0, 48(%rsp)
.LBE79:
.LBE80:
.LBE89:
.LBB90:
.LBB86:
.LBB85:
	movq	$0, 64(%rsp)
.LBE85:
.LBE86:
.LBE90:
	.loc 2 11 8 view .LVU19
	call	_Z6add128R6BigNumS0_S0_
.LVL5:
	.loc 2 17 2 is_stmt 1 view .LVU20
.LBB91:
.LBI91:
	.loc 3 15 23 view .LVU21
.LBB92:
	.loc 3 16 3 view .LVU22
.LBB93:
.LBI93:
	.file 4 "C:/msys64/mingw64/include/c++/9.2.0/ostream"
	.loc 4 192 7 view .LVU23
.LBB94:
	.loc 4 196 50 is_stmt 0 view .LVU24
	movl	80(%rsp), %edx
	movq	.refptr._ZSt4cout(%rip), %rcx
	call	_ZNSo9_M_insertImEERSoT_
.LVL6:
	.loc 4 196 50 view .LVU25
.LBE94:
.LBE93:
.LBB96:
.LBB97:
	.loc 4 570 18 view .LVU26
	movl	$1, %r8d
	leaq	.LC0(%rip), %rdx
	movq	%rax, %rcx
.LBE97:
.LBE96:
.LBB99:
.LBB95:
	.loc 4 196 50 view .LVU27
	movq	%rax, %r12
.LVL7:
	.loc 4 196 50 view .LVU28
.LBE95:
.LBE99:
.LBB100:
.LBI96:
	.loc 4 565 5 is_stmt 1 view .LVU29
	.loc 4 565 5 is_stmt 0 view .LVU30
.LBE100:
.LBE92:
.LBE91:
	.file 5 "C:/msys64/mingw64/include/c++/9.2.0/bits/char_traits.h"
	.loc 5 335 2 is_stmt 1 view .LVU31
.LBB128:
.LBB124:
.LBB101:
.LBB98:
	.loc 4 570 18 is_stmt 0 view .LVU32
	call	_ZSt16__ostream_insertIcSt11char_traitsIcEERSt13basic_ostreamIT_T0_ES6_PKS3_x
.LVL8:
	.loc 4 570 18 view .LVU33
.LBE98:
.LBE101:
.LBB102:
.LBI102:
	.loc 4 192 7 is_stmt 1 view .LVU34
.LBB103:
	.loc 4 196 50 is_stmt 0 view .LVU35
	movl	84(%rsp), %edx
	movq	%r12, %rcx
	call	_ZNSo9_M_insertImEERSoT_
.LVL9:
	.loc 4 196 50 view .LVU36
.LBE103:
.LBE102:
.LBB105:
.LBB106:
	.loc 4 570 18 view .LVU37
	movl	$1, %r8d
	leaq	.LC0(%rip), %rdx
	movq	%rax, %rcx
.LBE106:
.LBE105:
.LBB108:
.LBB104:
	.loc 4 196 50 view .LVU38
	movq	%rax, %r12
.LVL10:
	.loc 4 196 50 view .LVU39
.LBE104:
.LBE108:
.LBB109:
.LBI105:
	.loc 4 565 5 is_stmt 1 view .LVU40
	.loc 4 565 5 is_stmt 0 view .LVU41
.LBE109:
.LBE124:
.LBE128:
	.loc 5 335 2 is_stmt 1 view .LVU42
.LBB129:
.LBB125:
.LBB110:
.LBB107:
	.loc 4 570 18 is_stmt 0 view .LVU43
	call	_ZSt16__ostream_insertIcSt11char_traitsIcEERSt13basic_ostreamIT_T0_ES6_PKS3_x
.LVL11:
	.loc 4 570 18 view .LVU44
.LBE107:
.LBE110:
.LBB111:
.LBI111:
	.loc 4 192 7 is_stmt 1 view .LVU45
.LBB112:
	.loc 4 196 50 is_stmt 0 view .LVU46
	movl	88(%rsp), %edx
	movq	%r12, %rcx
	call	_ZNSo9_M_insertImEERSoT_
.LVL12:
	.loc 4 196 50 view .LVU47
.LBE112:
.LBE111:
.LBB114:
.LBB115:
	.loc 4 570 18 view .LVU48
	movl	$1, %r8d
	leaq	.LC0(%rip), %rdx
	movq	%rax, %rcx
.LBE115:
.LBE114:
.LBB117:
.LBB113:
	.loc 4 196 50 view .LVU49
	movq	%rax, %r12
.LVL13:
	.loc 4 196 50 view .LVU50
.LBE113:
.LBE117:
.LBB118:
.LBI114:
	.loc 4 565 5 is_stmt 1 view .LVU51
	.loc 4 565 5 is_stmt 0 view .LVU52
.LBE118:
.LBE125:
.LBE129:
	.loc 5 335 2 is_stmt 1 view .LVU53
.LBB130:
.LBB126:
.LBB119:
.LBB116:
	.loc 4 570 18 is_stmt 0 view .LVU54
	call	_ZSt16__ostream_insertIcSt11char_traitsIcEERSt13basic_ostreamIT_T0_ES6_PKS3_x
.LVL14:
	.loc 4 570 18 view .LVU55
.LBE116:
.LBE119:
.LBB120:
.LBI120:
	.loc 4 192 7 is_stmt 1 view .LVU56
.LBB121:
	.loc 4 196 50 is_stmt 0 view .LVU57
	movl	92(%rsp), %edx
	movq	%r12, %rcx
	call	_ZNSo9_M_insertImEERSoT_
.LVL15:
	.loc 4 196 50 view .LVU58
.LBE121:
.LBE120:
.LBE126:
.LBE130:
.LBB131:
.LBB132:
	.loc 4 518 30 view .LVU59
	leaq	47(%rsp), %rdx
	movl	$1, %r8d
	movb	$10, 47(%rsp)
.LBE132:
.LBE131:
.LBB134:
.LBB127:
.LBB123:
.LBB122:
	.loc 4 196 50 view .LVU60
	movq	%rax, %rcx
.LVL16:
	.loc 4 196 50 view .LVU61
.LBE122:
.LBE123:
.LBE127:
.LBE134:
.LBB135:
.LBI131:
	.loc 4 517 5 is_stmt 1 view .LVU62
.LBB133:
	.loc 4 518 30 is_stmt 0 view .LVU63
	call	_ZSt16__ostream_insertIcSt11char_traitsIcEERSt13basic_ostreamIT_T0_ES6_PKS3_x
.LVL17:
	.loc 4 518 30 view .LVU64
.LBE133:
.LBE135:
	.loc 2 30 1 view .LVU65
	xorl	%eax, %eax
	addq	$96, %rsp
	.cfi_def_cfa_offset 16
	popq	%r12
	.cfi_restore 12
	.cfi_def_cfa_offset 8
	ret
	.cfi_endproc
.LFE1544:
	.seh_endproc
	.p2align 4
	.def	_GLOBAL__sub_I_main;	.scl	3;	.type	32;	.endef
	.seh_proc	_GLOBAL__sub_I_main
_GLOBAL__sub_I_main:
.LFB1868:
	.loc 2 30 1 is_stmt 1 view -0
	.cfi_startproc
	subq	$40, %rsp
	.seh_stackalloc	40
	.cfi_def_cfa_offset 48
	.seh_endprologue
.LVL18:
.LBB136:
.LBI136:
	.loc 2 30 1 view .LVU67
.LBB137:
	.loc 1 74 25 is_stmt 0 view .LVU68
	leaq	_ZStL8__ioinit(%rip), %rcx
	call	_ZNSt8ios_base4InitC1Ev
.LVL19:
	leaq	__tcf_0(%rip), %rcx
.LBE137:
.LBE136:
	.loc 2 30 1 view .LVU69
	addq	$40, %rsp
	.cfi_def_cfa_offset 8
.LBB139:
.LBB138:
	.loc 1 74 25 view .LVU70
	jmp	atexit
.LVL20:
.LBE138:
.LBE139:
	.cfi_endproc
.LFE1868:
	.seh_endproc
	.section	.ctors,"w"
	.align 8
	.quad	_GLOBAL__sub_I_main
.lcomm _ZStL8__ioinit,1,1
	.text
.Letext0:
	.file 6 "C:/msys64/mingw64/include/c++/9.2.0/cwchar"
	.file 7 "C:/msys64/mingw64/include/c++/9.2.0/new"
	.file 8 "C:/msys64/mingw64/include/c++/9.2.0/bits/exception_ptr.h"
	.file 9 "C:/msys64/mingw64/include/c++/9.2.0/type_traits"
	.file 10 "C:/msys64/mingw64/include/c++/9.2.0/x86_64-w64-mingw32/bits/c++config.h"
	.file 11 "C:/msys64/mingw64/include/c++/9.2.0/bits/stl_pair.h"
	.file 12 "C:/msys64/mingw64/include/c++/9.2.0/debug/debug.h"
	.file 13 "C:/msys64/mingw64/include/c++/9.2.0/cstdint"
	.file 14 "C:/msys64/mingw64/include/c++/9.2.0/clocale"
	.file 15 "C:/msys64/mingw64/include/c++/9.2.0/cstdlib"
	.file 16 "C:/msys64/mingw64/include/c++/9.2.0/cstdio"
	.file 17 "C:/msys64/mingw64/include/c++/9.2.0/system_error"
	.file 18 "C:/msys64/mingw64/include/c++/9.2.0/bits/ios_base.h"
	.file 19 "C:/msys64/mingw64/include/c++/9.2.0/cwctype"
	.file 20 "C:/msys64/mingw64/include/c++/9.2.0/iosfwd"
	.file 21 "C:/msys64/mingw64/include/c++/9.2.0/bits/basic_ios.h"
	.file 22 "C:/msys64/mingw64/include/c++/9.2.0/bits/ostream.tcc"
	.file 23 "C:/msys64/mingw64/include/c++/9.2.0/bits/ostream_insert.h"
	.file 24 "C:/msys64/mingw64/include/c++/9.2.0/bits/predefined_ops.h"
	.file 25 "C:/msys64/mingw64/include/c++/9.2.0/ext/new_allocator.h"
	.file 26 "C:/msys64/mingw64/include/c++/9.2.0/ext/numeric_traits.h"
	.file 27 "C:/msys64/mingw64/x86_64-w64-mingw32/include/corecrt.h"
	.file 28 "C:/msys64/mingw64/x86_64-w64-mingw32/include/locale.h"
	.file 29 "C:/msys64/mingw64/x86_64-w64-mingw32/include/wchar.h"
	.file 30 "C:/msys64/mingw64/x86_64-w64-mingw32/include/swprintf.inl"
	.file 31 "C:/msys64/mingw64/x86_64-w64-mingw32/include/stdint.h"
	.file 32 "C:/msys64/mingw64/x86_64-w64-mingw32/include/stdio.h"
	.file 33 "C:/msys64/mingw64/x86_64-w64-mingw32/include/ctype.h"
	.file 34 "C:/msys64/mingw64/x86_64-w64-mingw32/include/process.h"
	.file 35 "C:/msys64/mingw64/x86_64-w64-mingw32/include/pthread.h"
	.file 36 "C:/msys64/mingw64/include/c++/9.2.0/x86_64-w64-mingw32/bits/atomic_word.h"
	.file 37 "C:/msys64/mingw64/x86_64-w64-mingw32/include/stdlib.h"
	.file 38 "C:/msys64/mingw64/x86_64-w64-mingw32/include/malloc.h"
	.file 39 "C:/msys64/mingw64/x86_64-w64-mingw32/include/wctype.h"
	.file 40 "<built-in>"
	.section	.rdata$.refptr._ZSt4cout, "dr"
	.globl	.refptr._ZSt4cout
	.linkonce	discard
.refptr._ZSt4cout:
	.quad	_ZSt4cout
